; ModuleID = '23/894.c'
source_filename = "23/894.c"
target datalayout = "e-m:e-p270:32:32-p271:32:32-p272:64:64-i64:64-f80:128-n8:16:32:64-S128"
target triple = "x86_64-pc-linux-gnu"

@.str = private unnamed_addr constant [3 x i8] c"%c\00", align 1

; Function Attrs: noinline nounwind uwtable
define dso_local void @main() #0 {
  %1 = alloca [200 x i8], align 16
  %2 = alloca [200 x i8], align 16
  %3 = alloca i32, align 4
  %4 = alloca i32, align 4
  %5 = alloca i32, align 4
  %6 = alloca i32, align 4
  %7 = alloca i32, align 4
  %8 = alloca i32, align 4
  %9 = alloca i32, align 4
  store i32 -1, i32* %3, align 4
  store i32 -1, i32* %4, align 4
  %10 = getelementptr inbounds [200 x i8], [200 x i8]* %1, i64 0, i64 0
  %11 = call i32 (i8*, ...) bitcast (i32 (...)* @gets to i32 (i8*, ...)*)(i8* %10)
  %12 = getelementptr inbounds [200 x i8], [200 x i8]* %1, i64 0, i64 0
  %13 = call i64 @strlen(i8* %12) #3
  %14 = trunc i64 %13 to i32
  store i32 %14, i32* %5, align 4
  store i32 0, i32* %6, align 4
  %15 = getelementptr inbounds [200 x i8], [200 x i8]* %1, i64 0, i64 0
  %16 = call i64 @strlen(i8* %15) #3
  %17 = trunc i64 %16 to i32
  store i32 %17, i32* %9, align 4
  store i32 0, i32* %7, align 4
  br label %18

18:                                               ; preds = %32, %0
  %19 = load i32, i32* %7, align 4
  %20 = load i32, i32* %9, align 4
  %21 = icmp slt i32 %19, %20
  br i1 %21, label %22, label %35

22:                                               ; preds = %18
  %23 = load i32, i32* %7, align 4
  %24 = sext i32 %23 to i64
  %25 = getelementptr inbounds [200 x i8], [200 x i8]* %1, i64 0, i64 %24
  %26 = load i8, i8* %25, align 1
  %27 = sext i8 %26 to i32
  %28 = icmp eq i32 %27, 32
  br i1 %28, label %29, label %31

29:                                               ; preds = %22
  %30 = load i32, i32* %7, align 4
  store i32 %30, i32* %3, align 4
  br label %35

31:                                               ; preds = %22
  br label %32

32:                                               ; preds = %31
  %33 = load i32, i32* %7, align 4
  %34 = add nsw i32 %33, 1
  store i32 %34, i32* %7, align 4
  br label %18

35:                                               ; preds = %29, %18
  store i32 0, i32* %7, align 4
  br label %36

36:                                               ; preds = %50, %35
  %37 = load i32, i32* %7, align 4
  %38 = load i32, i32* %9, align 4
  %39 = icmp slt i32 %37, %38
  br i1 %39, label %40, label %53

40:                                               ; preds = %36
  %41 = load i32, i32* %7, align 4
  %42 = sext i32 %41 to i64
  %43 = getelementptr inbounds [200 x i8], [200 x i8]* %1, i64 0, i64 %42
  %44 = load i8, i8* %43, align 1
  %45 = sext i8 %44 to i32
  %46 = icmp ne i32 %45, 32
  br i1 %46, label %47, label %49

47:                                               ; preds = %40
  %48 = load i32, i32* %7, align 4
  store i32 %48, i32* %4, align 4
  br label %53

49:                                               ; preds = %40
  br label %50

50:                                               ; preds = %49
  %51 = load i32, i32* %7, align 4
  %52 = add nsw i32 %51, 1
  store i32 %52, i32* %7, align 4
  br label %36

53:                                               ; preds = %47, %36
  %54 = load i32, i32* %3, align 4
  %55 = icmp ne i32 %54, -1
  br i1 %55, label %56, label %155

56:                                               ; preds = %53
  %57 = load i32, i32* %4, align 4
  %58 = icmp ne i32 %57, -1
  br i1 %58, label %59, label %155

59:                                               ; preds = %56
  %60 = load i32, i32* %9, align 4
  %61 = sub nsw i32 %60, 1
  store i32 %61, i32* %7, align 4
  br label %62

62:                                               ; preds = %113, %59
  %63 = load i32, i32* %7, align 4
  %64 = load i32, i32* %3, align 4
  %65 = icmp sge i32 %63, %64
  br i1 %65, label %66, label %116

66:                                               ; preds = %62
  %67 = load i32, i32* %7, align 4
  %68 = sext i32 %67 to i64
  %69 = getelementptr inbounds [200 x i8], [200 x i8]* %1, i64 0, i64 %68
  %70 = load i8, i8* %69, align 1
  %71 = sext i8 %70 to i32
  %72 = icmp eq i32 %71, 32
  br i1 %72, label %73, label %112

73:                                               ; preds = %66
  store i32 0, i32* %8, align 4
  br label %74

74:                                               ; preds = %94, %73
  %75 = load i32, i32* %8, align 4
  %76 = load i32, i32* %5, align 4
  %77 = sub nsw i32 %76, 1
  %78 = load i32, i32* %7, align 4
  %79 = sub nsw i32 %77, %78
  %80 = icmp slt i32 %75, %79
  br i1 %80, label %81, label %97

81:                                               ; preds = %74
  %82 = load i32, i32* %7, align 4
  %83 = add nsw i32 %82, 1
  %84 = load i32, i32* %8, align 4
  %85 = add nsw i32 %83, %84
  %86 = sext i32 %85 to i64
  %87 = getelementptr inbounds [200 x i8], [200 x i8]* %1, i64 0, i64 %86
  %88 = load i8, i8* %87, align 1
  %89 = load i32, i32* %6, align 4
  %90 = load i32, i32* %8, align 4
  %91 = add nsw i32 %89, %90
  %92 = sext i32 %91 to i64
  %93 = getelementptr inbounds [200 x i8], [200 x i8]* %2, i64 0, i64 %92
  store i8 %88, i8* %93, align 1
  br label %94

94:                                               ; preds = %81
  %95 = load i32, i32* %8, align 4
  %96 = add nsw i32 %95, 1
  store i32 %96, i32* %8, align 4
  br label %74

97:                                               ; preds = %74
  %98 = load i32, i32* %6, align 4
  %99 = load i32, i32* %5, align 4
  %100 = add nsw i32 %98, %99
  %101 = sub nsw i32 %100, 1
  %102 = load i32, i32* %7, align 4
  %103 = sub nsw i32 %101, %102
  %104 = sext i32 %103 to i64
  %105 = getelementptr inbounds [200 x i8], [200 x i8]* %2, i64 0, i64 %104
  store i8 32, i8* %105, align 1
  %106 = load i32, i32* %6, align 4
  %107 = load i32, i32* %5, align 4
  %108 = add nsw i32 %106, %107
  %109 = load i32, i32* %7, align 4
  %110 = sub nsw i32 %108, %109
  store i32 %110, i32* %6, align 4
  %111 = load i32, i32* %7, align 4
  store i32 %111, i32* %5, align 4
  br label %112

112:                                              ; preds = %97, %66
  br label %113

113:                                              ; preds = %112
  %114 = load i32, i32* %7, align 4
  %115 = add nsw i32 %114, -1
  store i32 %115, i32* %7, align 4
  br label %62

116:                                              ; preds = %62
  %117 = load i32, i32* %4, align 4
  store i32 %117, i32* %7, align 4
  br label %118

118:                                              ; preds = %134, %116
  %119 = load i32, i32* %7, align 4
  %120 = load i32, i32* %3, align 4
  %121 = icmp slt i32 %119, %120
  br i1 %121, label %122, label %137

122:                                              ; preds = %118
  %123 = load i32, i32* %4, align 4
  %124 = load i32, i32* %7, align 4
  %125 = add nsw i32 %123, %124
  %126 = sext i32 %125 to i64
  %127 = getelementptr inbounds [200 x i8], [200 x i8]* %1, i64 0, i64 %126
  %128 = load i8, i8* %127, align 1
  %129 = load i32, i32* %6, align 4
  %130 = load i32, i32* %7, align 4
  %131 = add nsw i32 %129, %130
  %132 = sext i32 %131 to i64
  %133 = getelementptr inbounds [200 x i8], [200 x i8]* %2, i64 0, i64 %132
  store i8 %128, i8* %133, align 1
  br label %134

134:                                              ; preds = %122
  %135 = load i32, i32* %7, align 4
  %136 = add nsw i32 %135, 1
  store i32 %136, i32* %7, align 4
  br label %118

137:                                              ; preds = %118
  store i32 0, i32* %7, align 4
  br label %138

138:                                              ; preds = %151, %137
  %139 = load i32, i32* %7, align 4
  %140 = load i32, i32* %9, align 4
  %141 = load i32, i32* %4, align 4
  %142 = sub nsw i32 %140, %141
  %143 = icmp slt i32 %139, %142
  br i1 %143, label %144, label %154

144:                                              ; preds = %138
  %145 = load i32, i32* %7, align 4
  %146 = sext i32 %145 to i64
  %147 = getelementptr inbounds [200 x i8], [200 x i8]* %2, i64 0, i64 %146
  %148 = load i8, i8* %147, align 1
  %149 = sext i8 %148 to i32
  %150 = call i32 (i8*, ...) @printf(i8* getelementptr inbounds ([3 x i8], [3 x i8]* @.str, i64 0, i64 0), i32 %149)
  br label %151

151:                                              ; preds = %144
  %152 = load i32, i32* %7, align 4
  %153 = add nsw i32 %152, 1
  store i32 %153, i32* %7, align 4
  br label %138

154:                                              ; preds = %138
  br label %175

155:                                              ; preds = %56, %53
  %156 = load i32, i32* %3, align 4
  %157 = icmp eq i32 %156, -1
  br i1 %157, label %158, label %174

158:                                              ; preds = %155
  store i32 0, i32* %7, align 4
  br label %159

159:                                              ; preds = %170, %158
  %160 = load i32, i32* %7, align 4
  %161 = load i32, i32* %9, align 4
  %162 = icmp slt i32 %160, %161
  br i1 %162, label %163, label %173

163:                                              ; preds = %159
  %164 = load i32, i32* %7, align 4
  %165 = sext i32 %164 to i64
  %166 = getelementptr inbounds [200 x i8], [200 x i8]* %1, i64 0, i64 %165
  %167 = load i8, i8* %166, align 1
  %168 = sext i8 %167 to i32
  %169 = call i32 (i8*, ...) @printf(i8* getelementptr inbounds ([3 x i8], [3 x i8]* @.str, i64 0, i64 0), i32 %168)
  br label %170

170:                                              ; preds = %163
  %171 = load i32, i32* %7, align 4
  %172 = add nsw i32 %171, 1
  store i32 %172, i32* %7, align 4
  br label %159

173:                                              ; preds = %159
  br label %174

174:                                              ; preds = %173, %155
  br label %175

175:                                              ; preds = %174, %154
  ret void
}

declare dso_local i32 @gets(...) #1

; Function Attrs: nounwind readonly
declare dso_local i64 @strlen(i8*) #2

declare dso_local i32 @printf(i8*, ...) #1


!llvm.module.flags = !{!0}
!llvm.ident = !{!1}

!0 = !{i32 1, !"wchar_size", i32 4}
!1 = !{!"clang version 10.0.0-4ubuntu1 "}
